target datalayout = "e-m:e-p270:32:32-p271:32:32-p272:64:64-i64:64-i128:128-f80:128-n8:16:32:64-S128"
target triple = "x86_64-pc-linux-gnu"

%struct.config_generic = type { ptr, i32, i32, ptr, ptr, i32, i32, i32, i32, i32, i32, i32, i32, i32, ptr, ptr, %struct.dlist_node, %struct.slist_node, %struct.slist_node, ptr, ptr, i32 }
%struct.dlist_node = type { ptr, ptr }
%struct.slist_node = type { ptr }
%struct.config_real = type { %struct.config_generic, ptr, double, double, double, ptr, ptr, ptr, double, ptr }

; Function Attrs: nounwind uwtable
define dso_local void @DefineCustomRealVariable(ptr noundef nonnull %0, ptr noundef %1, ptr noundef %2, ptr noundef nonnull %3, double noundef %4, double noundef %5, double noundef %6, i32 noundef %7, i32 noundef %8, ptr noundef %9, ptr noundef %10, ptr noundef %11) #0 {
  %13 = alloca ptr, align 8
  %14 = alloca ptr, align 8
  %15 = alloca ptr, align 8
  %16 = alloca ptr, align 8
  %17 = alloca double, align 8
  %18 = alloca double, align 8
  %19 = alloca double, align 8
  %20 = alloca i32, align 4
  %21 = alloca i32, align 4
  %22 = alloca ptr, align 8
  %23 = alloca ptr, align 8
  %24 = alloca ptr, align 8
  %25 = alloca ptr, align 8
  store ptr %0, ptr %13, align 8
  store ptr %1, ptr %14, align 8
  store ptr %2, ptr %15, align 8
  store ptr %3, ptr %16, align 8
  store double %4, ptr %17, align 8
  store double %5, ptr %18, align 8
  store double %6, ptr %19, align 8
  store i32 %7, ptr %20, align 4
  store i32 %8, ptr %21, align 4
  store ptr %9, ptr %22, align 8
  store ptr %10, ptr %23, align 8
  store ptr %11, ptr %24, align 8
  call void @llvm.lifetime.start.p0(i64 8, ptr %25) #16
  %26 = load ptr, ptr %13, align 8
  %27 = load ptr, ptr %14, align 8
  %28 = load ptr, ptr %15, align 8
  %29 = load i32, ptr %20, align 4
  %30 = load i32, ptr %21, align 4
  %31 = call ptr @init_custom_variable(ptr noundef %26, ptr noundef %27, ptr noundef %28, i32 noundef %29, i32 noundef %30, i32 noundef 2, i64 noundef 216)
  store ptr %31, ptr %25, align 8
  %32 = load ptr, ptr %16, align 8
  %33 = load ptr, ptr %25, align 8
  %34 = getelementptr inbounds nuw %struct.config_real, ptr %33, i32 0, i32 1
  store ptr %32, ptr %34, align 8
  %35 = load double, ptr %17, align 8
  %36 = load ptr, ptr %25, align 8
  %37 = getelementptr inbounds nuw %struct.config_real, ptr %36, i32 0, i32 2
  store double %35, ptr %37, align 8
  %38 = load double, ptr %17, align 8
  %39 = load ptr, ptr %25, align 8
  %40 = getelementptr inbounds nuw %struct.config_real, ptr %39, i32 0, i32 8
  store double %38, ptr %40, align 8
  %41 = load double, ptr %18, align 8
  %42 = load ptr, ptr %25, align 8
  %43 = getelementptr inbounds nuw %struct.config_real, ptr %42, i32 0, i32 3
  store double %41, ptr %43, align 8
  %44 = load double, ptr %19, align 8
  %45 = load ptr, ptr %25, align 8
  %46 = getelementptr inbounds nuw %struct.config_real, ptr %45, i32 0, i32 4
  store double %44, ptr %46, align 8
  %47 = load ptr, ptr %22, align 8
  %48 = load ptr, ptr %25, align 8
  %49 = getelementptr inbounds nuw %struct.config_real, ptr %48, i32 0, i32 5
  store ptr %47, ptr %49, align 8
  %50 = load ptr, ptr %23, align 8
  %51 = load ptr, ptr %25, align 8
  %52 = getelementptr inbounds nuw %struct.config_real, ptr %51, i32 0, i32 6
  store ptr %50, ptr %52, align 8
  %53 = load ptr, ptr %24, align 8
  %54 = load ptr, ptr %25, align 8
  %55 = getelementptr inbounds nuw %struct.config_real, ptr %54, i32 0, i32 7
  store ptr %53, ptr %55, align 8
  %56 = load ptr, ptr %25, align 8
  %57 = getelementptr inbounds nuw %struct.config_real, ptr %56, i32 0, i32 0
  call void @define_custom_variable(ptr noundef %57)
  call void @llvm.lifetime.end.p0(i64 8, ptr %25) #16
  ret void
}