; Function Attrs: nounwind uwtable
define dso_local void @DefineCustomRealVariable(ptr noundef nonnull readonly captures(none) %0, ptr noundef %1, ptr noundef %2, ptr noundef nonnull %3, double noundef %4, double noundef %5, double noundef %6, i32 noundef %7, i32 noundef %8, ptr noundef %9, ptr noundef %10, ptr noundef %11) local_unnamed_addr #0 {
  %13 = tail call fastcc ptr @init_custom_variable(ptr noundef %0, ptr noundef %1, ptr noundef %2, i32 noundef %7, i32 noundef %8, i32 noundef 2, i64 noundef 216)
  %14 = getelementptr inbounds nuw i8, ptr %13, i64 144
  store ptr %3, ptr %14, align 8
  %15 = getelementptr inbounds nuw i8, ptr %13, i64 152
  store double %4, ptr %15, align 8
  %16 = getelementptr inbounds nuw i8, ptr %13, i64 200
  store double %4, ptr %16, align 8
  %17 = getelementptr inbounds nuw i8, ptr %13, i64 160
  store double %5, ptr %17, align 8
  %18 = getelementptr inbounds nuw i8, ptr %13, i64 168
  store double %6, ptr %18, align 8
  %19 = getelementptr inbounds nuw i8, ptr %13, i64 176
  store ptr %9, ptr %19, align 8
  %20 = getelementptr inbounds nuw i8, ptr %13, i64 184
  store ptr %10, ptr %20, align 8
  %21 = getelementptr inbounds nuw i8, ptr %13, i64 192
  store ptr %11, ptr %21, align 8
  tail call fastcc void @define_custom_variable(ptr noundef %13)
  ret void
}